; Function Attrs: nounwind sspstrong uwtable
define hidden void @pm_buffer_concat(ptr noundef captures(none) %0, ptr noundef readonly captures(none) %1) local_unnamed_addr #4 {
  %3 = load i64, ptr %1, align 8, !tbaa !7
  %.not = icmp eq i64 %3, 0
  br i1 %.not, label %pm_buffer_append.exit, label %4

4:                                                ; preds = %2
  %5 = getelementptr inbounds nuw i8, ptr %1, i64 16
  %6 = load ptr, ptr %5, align 8, !tbaa !15
  %7 = load i64, ptr %0, align 8, !tbaa !7
  %8 = add i64 %7, %3
  %9 = getelementptr inbounds nuw i8, ptr %0, i64 8
  %10 = load i64, ptr %9, align 8, !tbaa !14
  %11 = icmp ugt i64 %8, %10
  br i1 %11, label %12, label %._crit_edge.i

._crit_edge.i:                                    ; preds = %4
  %.phi.trans.insert.i = getelementptr inbounds nuw i8, ptr %0, i64 16
  %.pre.i = load ptr, ptr %.phi.trans.insert.i, align 8, !tbaa !15
  br label %25

12:                                               ; preds = %4
  %13 = icmp eq i64 %10, 0
  br i1 %13, label %14, label %15

14:                                               ; preds = %12
  store i64 1, ptr %9, align 8, !tbaa !14
  br label %15

15:                                               ; preds = %14, %12
  %.promoted.i.i = phi i64 [ 1, %14 ], [ %10, %12 ]
  %16 = icmp ugt i64 %8, %.promoted.i.i
  br i1 %16, label %.lr.ph.i.i, label %20

.lr.ph.i.i:                                       ; preds = %15, %.lr.ph.i.i
  %17 = phi i64 [ %18, %.lr.ph.i.i ], [ %.promoted.i.i, %15 ]
  %18 = shl i64 %17, 1
  %19 = icmp ugt i64 %8, %18
  br i1 %19, label %.lr.ph.i.i, label %._crit_edge.i.i, !llvm.loop !16

._crit_edge.i.i:                                  ; preds = %.lr.ph.i.i
  store i64 %18, ptr %9, align 8, !tbaa !14
  br label %20

20:                                               ; preds = %._crit_edge.i.i, %15
  %.lcssa.i.i = phi i64 [ %18, %._crit_edge.i.i ], [ %.promoted.i.i, %15 ]
  %21 = getelementptr inbounds nuw i8, ptr %0, i64 16
  %22 = load ptr, ptr %21, align 8, !tbaa !15
  %23 = tail call ptr @realloc(ptr noundef %22, i64 noundef %.lcssa.i.i) #18
  store ptr %23, ptr %21, align 8, !tbaa !15
  %24 = icmp eq ptr %23, null
  br i1 %24, label %pm_buffer_append.exit, label %25

25:                                               ; preds = %20, %._crit_edge.i
  %26 = phi ptr [ %.pre.i, %._crit_edge.i ], [ %23, %20 ]
  store i64 %8, ptr %0, align 8, !tbaa !7
  %27 = getelementptr i8, ptr %26, i64 %7
  tail call void @llvm.memcpy.p0.p0.i64(ptr noundef nonnull align 1 %27, ptr noundef nonnull readonly align 1 %6, i64 noundef %3, i1 noundef false) #19
  br label %pm_buffer_append.exit

pm_buffer_append.exit:                            ; preds = %25, %20, %2
  ret void
}